; Function Attrs: nounwind uwtable
define void @Abc_NtkCutsAddFanunt(ptr noundef readonly captures(none) %0) local_unnamed_addr #0 {
  %2 = alloca ptr, align 8
  %3 = alloca ptr, align 8
  call void @llvm.lifetime.start.p0(i64 8, ptr nonnull %2) #13
  call void @llvm.lifetime.start.p0(i64 8, ptr nonnull %3) #13
  %4 = getelementptr inbounds nuw i8, ptr %0, i64 32
  %5 = load ptr, ptr %4, align 8, !tbaa !3
  %6 = getelementptr i8, ptr %5, i64 4
  %.val17 = load i32, ptr %6, align 4, !tbaa !24
  %7 = icmp sgt i32 %.val17, 0
  br i1 %7, label %.lr.ph, label %.critedge

.lr.ph:                                           ; preds = %1, %35
  %indvars.iv = phi i64 [ %indvars.iv.next, %35 ], [ 0, %1 ]
  %8 = phi ptr [ %36, %35 ], [ %5, %1 ]
  %.019 = phi i32 [ %.1, %35 ], [ 0, %1 ]
  %9 = getelementptr i8, ptr %8, i64 8
  %.val16.val = load ptr, ptr %9, align 8, !tbaa !26
  %10 = getelementptr inbounds nuw ptr, ptr %.val16.val, i64 %indvars.iv
  %11 = load ptr, ptr %10, align 8, !tbaa !27
  %12 = icmp eq ptr %11, null
  br i1 %12, label %35, label %13

13:                                               ; preds = %.lr.ph
  %14 = call i32 @Abc_NodeIsMuxType(ptr noundef nonnull %11) #13
  %.not = icmp eq i32 %14, 0
  br i1 %.not, label %35, label %15

15:                                               ; preds = %13
  %16 = call ptr @Abc_NodeRecognizeMux(ptr noundef nonnull %11, ptr noundef nonnull %3, ptr noundef nonnull %2) #13
  %17 = ptrtoint ptr %16 to i64
  %18 = and i64 %17, -2
  %19 = inttoptr i64 %18 to ptr
  %20 = load ptr, ptr %2, align 8, !tbaa !28
  %21 = ptrtoint ptr %20 to i64
  %22 = and i64 %21, -2
  %23 = inttoptr i64 %22 to ptr
  store ptr %23, ptr %2, align 8, !tbaa !28
  %24 = getelementptr inbounds nuw i8, ptr %19, i64 44
  %25 = load i32, ptr %24, align 4, !tbaa !30
  %26 = add nsw i32 %25, 1
  store i32 %26, ptr %24, align 4, !tbaa !30
  %27 = add nsw i32 %.019, 1
  %28 = call i32 @Abc_NodeIsExorType(ptr noundef nonnull %11) #13
  %.not15 = icmp eq i32 %28, 0
  br i1 %.not15, label %35, label %29

29:                                               ; preds = %15
  %30 = load ptr, ptr %2, align 8, !tbaa !28
  %31 = getelementptr inbounds nuw i8, ptr %30, i64 44
  %32 = load i32, ptr %31, align 4, !tbaa !30
  %33 = add nsw i32 %32, 1
  store i32 %33, ptr %31, align 4, !tbaa !30
  %34 = add nsw i32 %.019, 2
  br label %35

35:                                               ; preds = %.lr.ph, %29, %15, %13
  %.1 = phi i32 [ %.019, %.lr.ph ], [ %34, %29 ], [ %27, %15 ], [ %.019, %13 ]
  %indvars.iv.next = add nuw nsw i64 %indvars.iv, 1
  %36 = load ptr, ptr %4, align 8, !tbaa !3
  %37 = getelementptr i8, ptr %36, i64 4
  %.val = load i32, ptr %37, align 4, !tbaa !24
  %38 = sext i32 %.val to i64
  %39 = icmp slt i64 %indvars.iv.next, %38
  br i1 %39, label %.lr.ph, label %.critedge, !llvm.loop !34

.critedge:                                        ; preds = %35, %1
  %.0.lcssa = phi i32 [ 0, %1 ], [ %.1, %35 ]
  %40 = call i32 (ptr, ...) @printf(ptr noundef nonnull dereferenceable(1) @.str.1, i32 noundef %.0.lcssa)
  call void @llvm.lifetime.end.p0(i64 8, ptr nonnull %3) #13
  call void @llvm.lifetime.end.p0(i64 8, ptr nonnull %2) #13
  ret void
}